target datalayout = "e-m:e-p270:32:32-p271:32:32-p272:64:64-i64:64-i128:128-f80:128-n8:16:32:64-S128"
target triple = "x86_64-pc-linux-gnu"

%"class.logging::LogMessage" = type <{ i32, [4 x i8], %"class.std::__cxx11::basic_ostringstream", i64, ptr, i32, [4 x i8] }>
%"class.std::__cxx11::basic_ostringstream" = type { %"class.std::basic_ostream.base", %"class.std::__cxx11::basic_stringbuf", %"class.std::basic_ios" }
%"class.std::basic_ostream.base" = type { ptr }
%"class.std::__cxx11::basic_stringbuf" = type { %"class.std::basic_streambuf", i32, %"class.std::__cxx11::basic_string" }
%"class.std::basic_streambuf" = type { ptr, ptr, ptr, ptr, ptr, ptr, ptr, %"class.std::locale" }
%"class.std::locale" = type { ptr }
%"class.std::__cxx11::basic_string" = type { %"struct.std::__cxx11::basic_string<char>::_Alloc_hider", i64, %union.anon }
%"struct.std::__cxx11::basic_string<char>::_Alloc_hider" = type { ptr }
%union.anon = type { i64, [8 x i8] }
%"class.std::basic_ios" = type { %"class.std::ios_base", ptr, i8, i8, ptr, ptr, ptr, ptr }
%"class.std::ios_base" = type { ptr, i64, i64, i32, i32, i32, ptr, %"struct.std::ios_base::_Words", [8 x %"struct.std::ios_base::_Words"], i32, ptr, %"class.std::locale" }
%"struct.std::ios_base::_Words" = type { ptr, i64 }
%"class.logging::LogMessageVoidify" = type { i8 }

@.str.1 = private unnamed_addr constant [128 x i8] c"generated/home/dtcxzyw/WorkSpace/Projects/compilers/llvm-opt-benchmark/bench/libquic/libquic/src/net/quic/core/quic_protocol.cc\00", align 1
@.str.2 = private unnamed_addr constant [26 x i8] c"Unsupported QuicVersion: \00", align 1

; Function Attrs: inlinehint mustprogress nounwind uwtable
define linkonce_odr noundef i32 @_ZStorSt12_Ios_IostateS_(i32 noundef %0, i32 noundef %1) #7 comdat {
  %3 = alloca i32, align 4
  %4 = alloca i32, align 4
  store i32 %0, ptr %3, align 4, !tbaa !474
  store i32 %1, ptr %4, align 4, !tbaa !474
  %5 = load i32, ptr %3, align 4, !tbaa !474
  %6 = load i32, ptr %4, align 4, !tbaa !474
  %7 = or i32 %5, %6
  ret i32 %7
}

; Function Attrs: mustprogress nounwind uwtable
define available_externally noundef i32 @_ZNKSt9basic_iosIcSt11char_traitsIcEE7rdstateEv(ptr noundef nonnull align 8 dereferenceable(264) %0) #1 align 2 {
  %2 = alloca ptr, align 8
  store ptr %0, ptr %2, align 8, !tbaa !472
  %3 = load ptr, ptr %2, align 8
  %4 = getelementptr inbounds nuw %"class.std::ios_base", ptr %3, i32 0, i32 5
  %5 = load i32, ptr %4, align 8, !tbaa !476
  ret i32 %5
}

; Function Attrs: mustprogress nounwind uwtable
define linkonce_odr noundef i64 @_ZNSt11char_traitsIcE6lengthEPKc(ptr noundef %0) #1 comdat align 2 {
  %2 = alloca ptr, align 8
  store ptr %0, ptr %2, align 8, !tbaa !66
  %3 = load ptr, ptr %2, align 8, !tbaa !66
  %4 = call i64 @strlen(ptr noundef %3) #18
  ret i64 %4
}

; Function Attrs: mustprogress uwtable
define available_externally void @_ZNSt9basic_iosIcSt11char_traitsIcEE8setstateESt12_Ios_Iostate(ptr noundef nonnull align 8 dereferenceable(264) %0, i32 noundef %1) #0 align 2 {
  %3 = alloca ptr, align 8
  %4 = alloca i32, align 4
  store ptr %0, ptr %3, align 8, !tbaa !472
  store i32 %1, ptr %4, align 4, !tbaa !474
  %5 = load ptr, ptr %3, align 8
  %6 = call noundef i32 @_ZNKSt9basic_iosIcSt11char_traitsIcEE7rdstateEv(ptr noundef nonnull align 8 dereferenceable(264) %5)
  %7 = load i32, ptr %4, align 4, !tbaa !474
  %8 = call noundef i32 @_ZStorSt12_Ios_IostateS_(i32 noundef %6, i32 noundef %7)
  call void @_ZNSt9basic_iosIcSt11char_traitsIcEE5clearESt12_Ios_Iostate(ptr noundef nonnull align 8 dereferenceable(264) %5, i32 noundef %8)
  ret void
}

; Function Attrs: mustprogress nounwind uwtable
define linkonce_odr void @_ZN7logging17LogMessageVoidifyanERSo(ptr noundef nonnull align 1 dereferenceable(1) %0, ptr noundef nonnull align 8 dereferenceable(8) %1) #1 comdat align 2 {
  %3 = alloca ptr, align 8
  %4 = alloca ptr, align 8
  store ptr %0, ptr %3, align 8, !tbaa !128
  store ptr %1, ptr %4, align 8, !tbaa !130
  ret void
}

; Function Attrs: inlinehint mustprogress uwtable
define available_externally noundef nonnull align 8 dereferenceable(8) ptr @_ZStlsISt11char_traitsIcEERSt13basic_ostreamIcT_ES5_PKc(ptr noundef nonnull align 8 dereferenceable(8) %0, ptr noundef %1) #8 {
  %3 = alloca ptr, align 8
  %4 = alloca ptr, align 8
  store ptr %0, ptr %3, align 8, !tbaa !130
  store ptr %1, ptr %4, align 8, !tbaa !66
  %5 = load ptr, ptr %4, align 8, !tbaa !66
  %6 = icmp ne ptr %5, null
  br i1 %6, label %13, label %7

7:                                                ; preds = %2
  %8 = load ptr, ptr %3, align 8, !tbaa !130
  %9 = load ptr, ptr %8, align 8, !tbaa !69
  %10 = getelementptr i8, ptr %9, i64 -24
  %11 = load i64, ptr %10, align 8
  %12 = getelementptr inbounds i8, ptr %8, i64 %11
  call void @_ZNSt9basic_iosIcSt11char_traitsIcEE8setstateESt12_Ios_Iostate(ptr noundef nonnull align 8 dereferenceable(264) %12, i32 noundef 1)
  br label %19

13:                                               ; preds = %2
  %14 = load ptr, ptr %3, align 8, !tbaa !130
  %15 = load ptr, ptr %4, align 8, !tbaa !66
  %16 = load ptr, ptr %4, align 8, !tbaa !66
  %17 = call noundef i64 @_ZNSt11char_traitsIcE6lengthEPKc(ptr noundef %16)
  %18 = call noundef nonnull align 8 dereferenceable(8) ptr @_ZSt16__ostream_insertIcSt11char_traitsIcEERSt13basic_ostreamIT_T0_ES6_PKS3_l(ptr noundef nonnull align 8 dereferenceable(8) %14, ptr noundef %15, i64 noundef %17)
  br label %19

19:                                               ; preds = %13, %7
  %20 = load ptr, ptr %3, align 8, !tbaa !130
  ret ptr %20
}

; Function Attrs: mustprogress nounwind uwtable
define linkonce_odr noundef nonnull align 8 dereferenceable(8) ptr @_ZN7logging10LogMessage6streamEv(ptr noundef nonnull align 8 dereferenceable(404) %0) #1 comdat align 2 {
  %2 = alloca ptr, align 8
  store ptr %0, ptr %2, align 8, !tbaa !108
  %3 = load ptr, ptr %2, align 8
  %4 = getelementptr inbounds nuw %"class.logging::LogMessage", ptr %3, i32 0, i32 2
  ret ptr %4
}

; Function Attrs: mustprogress nounwind uwtable
define linkonce_odr void @_ZN7logging17LogMessageVoidifyC2Ev(ptr noundef nonnull align 1 dereferenceable(1) %0) unnamed_addr #1 comdat align 2 {
  %2 = alloca ptr, align 8
  store ptr %0, ptr %2, align 8, !tbaa !128
  ret void
}

; Function Attrs: mustprogress nounwind uwtable
define noundef i32 @_ZN3net11MakeQuicTagEcccc(i8 noundef signext %0, i8 noundef signext %1, i8 noundef signext %2, i8 noundef signext %3) #1 {
  %5 = alloca i8, align 1
  %6 = alloca i8, align 1
  %7 = alloca i8, align 1
  %8 = alloca i8, align 1
  store i8 %0, ptr %5, align 1, !tbaa !110
  store i8 %1, ptr %6, align 1, !tbaa !110
  store i8 %2, ptr %7, align 1, !tbaa !110
  store i8 %3, ptr %8, align 1, !tbaa !110
  %9 = load i8, ptr %5, align 1, !tbaa !110
  %10 = sext i8 %9 to i32
  %11 = load i8, ptr %6, align 1, !tbaa !110
  %12 = sext i8 %11 to i32
  %13 = shl i32 %12, 8
  %14 = or i32 %10, %13
  %15 = load i8, ptr %7, align 1, !tbaa !110
  %16 = sext i8 %15 to i32
  %17 = shl i32 %16, 16
  %18 = or i32 %14, %17
  %19 = load i8, ptr %8, align 1, !tbaa !110
  %20 = sext i8 %19 to i32
  %21 = shl i32 %20, 24
  %22 = or i32 %18, %21
  ret i32 %22
}

; Function Attrs: mustprogress uwtable
define noundef i32 @_ZN3net20QuicVersionToQuicTagENS_11QuicVersionE(i32 noundef %0) #0 personality ptr @__gxx_personality_v0 {
  %2 = alloca i32, align 4
  %3 = alloca i32, align 4
  %4 = alloca %"class.logging::LogMessageVoidify", align 1
  %5 = alloca %"class.logging::LogMessage", align 8
  %6 = alloca i1, align 1
  %7 = alloca i1, align 1
  %8 = alloca ptr, align 8
  %9 = alloca i32, align 4
  store i32 %0, ptr %3, align 4, !tbaa !3
  %10 = load i32, ptr %3, align 4, !tbaa !3
  switch i32 %10, label %25 [
    i32 30, label %11
    i32 31, label %13
    i32 32, label %15
    i32 33, label %17
    i32 34, label %19
    i32 35, label %21
    i32 36, label %23
  ]

11:                                               ; preds = %1
  %12 = call noundef i32 @_ZN3net11MakeQuicTagEcccc(i8 noundef signext 81, i8 noundef signext 48, i8 noundef signext 51, i8 noundef signext 48)
  store i32 %12, ptr %2, align 4
  br label %54

13:                                               ; preds = %1
  %14 = call noundef i32 @_ZN3net11MakeQuicTagEcccc(i8 noundef signext 81, i8 noundef signext 48, i8 noundef signext 51, i8 noundef signext 49)
  store i32 %14, ptr %2, align 4
  br label %54

15:                                               ; preds = %1
  %16 = call noundef i32 @_ZN3net11MakeQuicTagEcccc(i8 noundef signext 81, i8 noundef signext 48, i8 noundef signext 51, i8 noundef signext 50)
  store i32 %16, ptr %2, align 4
  br label %54

17:                                               ; preds = %1
  %18 = call noundef i32 @_ZN3net11MakeQuicTagEcccc(i8 noundef signext 81, i8 noundef signext 48, i8 noundef signext 51, i8 noundef signext 51)
  store i32 %18, ptr %2, align 4
  br label %54

19:                                               ; preds = %1
  %20 = call noundef i32 @_ZN3net11MakeQuicTagEcccc(i8 noundef signext 81, i8 noundef signext 48, i8 noundef signext 51, i8 noundef signext 52)
  store i32 %20, ptr %2, align 4
  br label %54

21:                                               ; preds = %1
  %22 = call noundef i32 @_ZN3net11MakeQuicTagEcccc(i8 noundef signext 81, i8 noundef signext 48, i8 noundef signext 51, i8 noundef signext 53)
  store i32 %22, ptr %2, align 4
  br label %54

23:                                               ; preds = %1
  %24 = call noundef i32 @_ZN3net11MakeQuicTagEcccc(i8 noundef signext 81, i8 noundef signext 48, i8 noundef signext 51, i8 noundef signext 54)
  store i32 %24, ptr %2, align 4
  br label %54

25:                                               ; preds = %1
  %26 = call noundef zeroext i1 @_ZN7logging22ShouldCreateLogMessageEi(i32 noundef 2)
  call void @llvm.lifetime.start.p0(i64 1, ptr %4) #18
  store i1 false, ptr %6, align 1
  store i1 false, ptr %7, align 1
  br i1 %26, label %28, label %27

27:                                               ; preds = %25
  br label %37

28:                                               ; preds = %25
  call void @_ZN7logging17LogMessageVoidifyC2Ev(ptr noundef nonnull align 1 dereferenceable(1) %4)
  call void @llvm.lifetime.start.p0(i64 408, ptr %5) #18
  store i1 true, ptr %6, align 1
  call void @_ZN7logging10LogMessageC1EPKcii(ptr noundef nonnull align 8 dereferenceable(404) %5, ptr noundef @.str.1, i32 noundef 243, i32 noundef 2)
  store i1 true, ptr %7, align 1
  %29 = invoke noundef nonnull align 8 dereferenceable(8) ptr @_ZN7logging10LogMessage6streamEv(ptr noundef nonnull align 8 dereferenceable(404) %5)
          to label %30 unwind label %44

30:                                               ; preds = %28
  %31 = invoke noundef nonnull align 8 dereferenceable(8) ptr @_ZStlsISt11char_traitsIcEERSt13basic_ostreamIcT_ES5_PKc(ptr noundef nonnull align 8 dereferenceable(8) %29, ptr noundef @.str.2)
          to label %32 unwind label %44

32:                                               ; preds = %30
  %33 = load i32, ptr %3, align 4, !tbaa !3
  %34 = invoke noundef nonnull align 8 dereferenceable(8) ptr @_ZNSolsEi(ptr noundef nonnull align 8 dereferenceable(8) %31, i32 noundef %33)
          to label %35 unwind label %44

35:                                               ; preds = %32
  invoke void @_ZN7logging17LogMessageVoidifyanERSo(ptr noundef nonnull align 1 dereferenceable(1) %4, ptr noundef nonnull align 8 dereferenceable(8) %34)
          to label %36 unwind label %44

36:                                               ; preds = %35
  br label %37

37:                                               ; preds = %36, %27
  %38 = load i1, ptr %7, align 1
  br i1 %38, label %39, label %40

39:                                               ; preds = %37
  call void @_ZN7logging10LogMessageD1Ev(ptr noundef nonnull align 8 dereferenceable(404) %5) #18
  br label %40

40:                                               ; preds = %39, %37
  %41 = load i1, ptr %6, align 1
  br i1 %41, label %42, label %43

42:                                               ; preds = %40
  call void @llvm.lifetime.end.p0(i64 408, ptr %5) #18
  br label %43

43:                                               ; preds = %42, %40
  call void @llvm.lifetime.end.p0(i64 1, ptr %4) #18
  store i32 0, ptr %2, align 4
  br label %54

44:                                               ; preds = %35, %32, %30, %28
  %45 = landingpad { ptr, i32 }
          cleanup
  %46 = extractvalue { ptr, i32 } %45, 0
  store ptr %46, ptr %8, align 8
  %47 = extractvalue { ptr, i32 } %45, 1
  store i32 %47, ptr %9, align 4
  %48 = load i1, ptr %7, align 1
  br i1 %48, label %49, label %50

49:                                               ; preds = %44
  call void @_ZN7logging10LogMessageD1Ev(ptr noundef nonnull align 8 dereferenceable(404) %5) #18
  br label %50

50:                                               ; preds = %49, %44
  %51 = load i1, ptr %6, align 1
  br i1 %51, label %52, label %53

52:                                               ; preds = %50
  call void @llvm.lifetime.end.p0(i64 408, ptr %5) #18
  br label %53

53:                                               ; preds = %52, %50
  call void @llvm.lifetime.end.p0(i64 1, ptr %4) #18
  br label %56

54:                                               ; preds = %43, %23, %21, %19, %17, %15, %13, %11
  %55 = load i32, ptr %2, align 4
  ret i32 %55

56:                                               ; preds = %53
  %57 = load ptr, ptr %8, align 8
  %58 = load i32, ptr %9, align 4
  %59 = insertvalue { ptr, i32 } poison, ptr %57, 0
  %60 = insertvalue { ptr, i32 } %59, i32 %58, 1
  resume { ptr, i32 } %60
}