; Function Attrs: mustprogress uwtable
define noundef range(i32 0, 909324370) i32 @_ZN3net20QuicVersionToQuicTagENS_11QuicVersionE(i32 noundef %0) local_unnamed_addr #3 personality ptr @__gxx_personality_v0 {
  %2 = alloca %"class.logging::LogMessage", align 8
  %switch.tableidx = add i32 %0, -30
  %3 = icmp ult i32 %switch.tableidx, 7
  br i1 %3, label %switch.lookup, label %4

4:                                                ; preds = %1
  %5 = tail call noundef zeroext i1 @_ZN7logging22ShouldCreateLogMessageEi(i32 noundef 2)
  br i1 %5, label %6, label %.critedge10

6:                                                ; preds = %4
  call void @llvm.lifetime.start.p0(i64 408, ptr nonnull %2) #30
  call void @_ZN7logging10LogMessageC1EPKcii(ptr noundef nonnull align 8 dereferenceable(404) %2, ptr noundef nonnull @.str.1, i32 noundef 243, i32 noundef 2)
  %7 = getelementptr inbounds nuw i8, ptr %2, i64 8
  %8 = invoke noundef nonnull align 8 dereferenceable(8) ptr @_ZSt16__ostream_insertIcSt11char_traitsIcEERSt13basic_ostreamIT_T0_ES6_PKS3_l(ptr noundef nonnull align 8 dereferenceable(8) %7, ptr noundef nonnull @.str.2, i64 noundef 25)
          to label %_ZStlsISt11char_traitsIcEERSt13basic_ostreamIcT_ES5_PKc.exit unwind label %10

_ZStlsISt11char_traitsIcEERSt13basic_ostreamIcT_ES5_PKc.exit: ; preds = %6
  %9 = invoke noundef nonnull align 8 dereferenceable(8) ptr @_ZNSolsEi(ptr noundef nonnull align 8 dereferenceable(8) %7, i32 noundef %0)
          to label %.critedge unwind label %10

.critedge:                                        ; preds = %_ZStlsISt11char_traitsIcEERSt13basic_ostreamIcT_ES5_PKc.exit
  call void @_ZN7logging10LogMessageD1Ev(ptr noundef nonnull align 8 dereferenceable(404) %2) #30
  call void @llvm.lifetime.end.p0(i64 408, ptr nonnull %2) #30
  br label %.critedge10

10:                                               ; preds = %6, %_ZStlsISt11char_traitsIcEERSt13basic_ostreamIcT_ES5_PKc.exit
  %11 = landingpad { ptr, i32 }
          cleanup
  call void @_ZN7logging10LogMessageD1Ev(ptr noundef nonnull align 8 dereferenceable(404) %2) #30
  call void @llvm.lifetime.end.p0(i64 408, ptr nonnull %2) #30
  resume { ptr, i32 } %11

switch.lookup:                                    ; preds = %1
  %switch.idx.mult = shl nuw nsw i32 %switch.tableidx, 24
  %switch.offset = or disjoint i32 %switch.idx.mult, 808661073
  br label %.critedge10

.critedge10:                                      ; preds = %switch.lookup, %.critedge, %4
  %.0 = phi i32 [ 0, %4 ], [ 0, %.critedge ], [ %switch.offset, %switch.lookup ]
  ret i32 %.0
}